EXPORTS
	_ZN11CFeedEngine10RemoveFeedEj @ 1 NONAME
	_ZN11CFeedEngine10UpdateFeedEP9CFeedInfo @ 2 NONAME
	_ZN11CFeedEngine11AddObserverEP19MFeedEngineObserver @ 3 NONAME
	_ZN11CFeedEngine11ClientStateEv @ 4 NONAME
	_ZN11CFeedEngine11ImportBookLERK7TDesC16S2_ @ 5 NONAME
	_ZN11CFeedEngine11RemoveBookLEj @ 6 NONAME
	_ZN11CFeedEngine11UpdateFeedLEj @ 7 NONAME
	_ZN11CFeedEngine12ExportFeedsLER4TBufILi256EE @ 8 NONAME
	_ZN11CFeedEngine12ImportFeedsLERK7TDesC16 @ 9 NONAME
	_ZN11CFeedEngine14GetSortedBooksEv @ 10 NONAME
	_ZN11CFeedEngine14GetSortedFeedsEv @ 11 NONAME
	_ZN11CFeedEngine14GetStatsByFeedEjRjS0_i @ 12 NONAME
	_ZN11CFeedEngine14RemoveObserverEP19MFeedEngineObserver @ 13 NONAME
	_ZN11CFeedEngine15ActiveClientUidEv @ 14 NONAME
	_ZN11CFeedEngine15UpdateAllFeedsLEv @ 15 NONAME
	_ZN11CFeedEngine16AddBookChaptersLER9CFeedInfoP16CDesC16ArrayFlat @ 16 NONAME
	_ZN11CFeedEngine16GetFeedInfoByUidEj @ 17 NONAME
	_ZN11CFeedEngine18GetDownloadedStatsERjS0_ @ 18 NONAME
	_ZN11CFeedEngine21CancelUpdateAllFeedsLEv @ 19 NONAME
	_ZN11CFeedEngine7AddFeedEP9CFeedInfo @ 20 NONAME
	_ZN11CFeedEngine8AddBookLERK7TDesC16P16CDesC16ArrayFlat @ 21 NONAME
	_ZN11CShowEngine10DeleteShowEji @ 22 NONAME
	_ZN11CShowEngine10UpdateShowEP9CShowInfo @ 23 NONAME
	_ZN11CShowEngine11AddDownloadEP9CShowInfo @ 24 NONAME
	_ZN11CShowEngine11AddObserverEP19MShowEngineObserver @ 25 NONAME
	_ZN11CShowEngine11CheckFilesLEv @ 26 NONAME
	_ZN11CShowEngine11GetMimeTypeERK7TDesC16R6TDes16 @ 27 NONAME
	_ZN11CShowEngine13GetShowByUidLEj @ 28 NONAME
	_ZN11CShowEngine13StopDownloadsEv @ 29 NONAME
	_ZN11CShowEngine14RemoveDownloadEj @ 30 NONAME
	_ZN11CShowEngine14RemoveObserverEP19MShowEngineObserver @ 31 NONAME
	_ZN11CShowEngine15ResumeDownloadsEv @ 32 NONAME
	_ZN11CShowEngine15ShowDownloadingEv @ 33 NONAME
	_ZN11CShowEngine16DownloadsStoppedEv @ 34 NONAME
	_ZN11CShowEngine17DeletePlayedShowsER13RPointerArrayI9CShowInfoE @ 35 NONAME
	_ZN11CShowEngine18RemoveAllDownloadsEv @ 36 NONAME
	_ZN11CShowEngine20DeleteAllShowsByFeedEji @ 37 NONAME
	_ZN11CShowEngine23GetNumDownloadingShowsLEv @ 38 NONAME
	_ZN12CSoundEngine10VolumeDownEv @ 39 NONAME
	_ZN12CSoundEngine11AddObserverEP20MSoundEngineObserver @ 40 NONAME
	_ZN12CSoundEngine11SetPositionEj @ 41 NONAME
	_ZN12CSoundEngine4PlayEv @ 42 NONAME
	_ZN12CSoundEngine4StopEi @ 43 NONAME
	_ZN12CSoundEngine5PauseEi @ 44 NONAME
	_ZN12CSoundEngine5StateEv @ 45 NONAME
	_ZN12CSoundEngine8PlayTimeEv @ 46 NONAME
	_ZN12CSoundEngine8PositionEv @ 47 NONAME
	_ZN12CSoundEngine8VolumeUpEv @ 48 NONAME
	_ZN12PodcastUtils13FixProtocolsLER6TDes16 @ 49 NONAME
	_ZN13CPodcastModel10FeedEngineEv @ 50 NONAME
	_ZN13CPodcastModel10ShowEngineEv @ 51 NONAME
	_ZN13CPodcastModel11GetAllShowsEv @ 52 NONAME
	_ZN13CPodcastModel11GetNewShowsEv @ 53 NONAME
	_ZN13CPodcastModel11SoundEngineEv @ 54 NONAME
	_ZN13CPodcastModel14ActiveFeedInfoEv @ 55 NONAME
	_ZN13CPodcastModel14ActiveShowListEv @ 56 NONAME
	_ZN13CPodcastModel14GetShowsByFeedEj @ 57 NONAME
	_ZN13CPodcastModel14PlayingPodcastEv @ 58 NONAME
	_ZN13CPodcastModel14SettingsEngineEv @ 59 NONAME
	_ZN13CPodcastModel17PlayPausePodcastLEP9CShowInfoi @ 60 NONAME
	_ZN13CPodcastModel17SetActiveFeedInfoEP9CFeedInfo @ 61 NONAME
	_ZN13CPodcastModel17SetPlayingPodcastEP9CShowInfo @ 62 NONAME
	_ZN13CPodcastModel18GetShowsDownloadedEv @ 63 NONAME
	_ZN13CPodcastModel19GetShowsDownloadingEv @ 64 NONAME
	_ZN13CPodcastModel19MarkSelectionPlayedEv @ 65 NONAME
	_ZN13CPodcastModel4NewLEv @ 66 NONAME
	_ZN13CPodcastModel6IAPIdsEv @ 67 NONAME
	_ZN13CPodcastModel6SetIapEi @ 68 NONAME
	_ZN13CPodcastModel8IAPNamesEv @ 69 NONAME
	_ZN15CSettingsEngine10SetBaseDirER4TBufILi256EE @ 70 NONAME
	_ZN15CSettingsEngine11SpecificIAPEv @ 71 NONAME
	_ZN15CSettingsEngine12SeekStepTimeEv @ 72 NONAME
	_ZN15CSettingsEngine13SaveSettingsLEv @ 73 NONAME
	_ZN15CSettingsEngine14SetSpecificIAPEi @ 74 NONAME
	_ZN15CSettingsEngine14UpdateFeedTimeEv @ 75 NONAME
	_ZN15CSettingsEngine16SetSeekStepTimekEi @ 76 NONAME
	_ZN15CSettingsEngine17SetUpdateFeedTimeE5TTime @ 77 NONAME
	_ZN15CSettingsEngine18SelectUnplayedOnlyEv @ 78 NONAME
	_ZN15CSettingsEngine18UpdateFeedIntervalEv @ 79 NONAME
	_ZN15CSettingsEngine19UpdateAutomaticallyEv @ 80 NONAME
	_ZN15CSettingsEngine21DownloadAutomaticallyEv @ 81 NONAME
	_ZN15CSettingsEngine21SetSelectUnplayedOnlyEi @ 82 NONAME
	_ZN15CSettingsEngine21SetUpdateFeedIntervalEi @ 83 NONAME
	_ZN15CSettingsEngine22SetUpdateAutomaticallyE18TAutoUpdateSetting @ 84 NONAME
	_ZN15CSettingsEngine24MaxSimultaneousDownloadsEv @ 85 NONAME
	_ZN15CSettingsEngine24SetDownloadAutomaticallyEi @ 86 NONAME
	_ZN15CSettingsEngine27SetMaxSimultaneousDownloadsEi @ 87 NONAME
	_ZN15CSettingsEngine7BaseDirEv @ 88 NONAME
	_ZN9CFeedInfo10IsBookFeedEv @ 89 NONAME
	_ZN9CFeedInfo11CustomTitleEv @ 90 NONAME
	_ZN9CFeedInfo11LastUpdatedEv @ 91 NONAME
	_ZN9CFeedInfo12SetBuildDateE5TTime @ 92 NONAME
	_ZN9CFeedInfo12SetImageUrlLERK7TDesC16 @ 93 NONAME
	_ZN9CFeedInfo13SetIsBookFeedEv @ 94 NONAME
	_ZN9CFeedInfo14SetCustomTitleEv @ 95 NONAME
	_ZN9CFeedInfo14SetLastUpdatedE5TTime @ 96 NONAME
	_ZN9CFeedInfo15SetDescriptionLERK7TDesC16 @ 97 NONAME
	_ZN9CFeedInfo17SetImageFileNameLERK7TDesC16 @ 98 NONAME
	_ZN9CFeedInfo3UidEv @ 99 NONAME
	_ZN9CFeedInfo4NewLEv @ 100 NONAME
	_ZN9CFeedInfo5NewLCEv @ 101 NONAME
	_ZN9CFeedInfo7SetUrlLERK7TDesC16 @ 102 NONAME
	_ZN9CFeedInfo8SetLinkLERK7TDesC16 @ 103 NONAME
	_ZN9CFeedInfo9BuildDateEv @ 104 NONAME
	_ZN9CFeedInfo9SetTitleLERK7TDesC16 @ 105 NONAME
	_ZN9CFeedInfoD0Ev @ 106 NONAME
	_ZN9CFeedInfoD1Ev @ 107 NONAME
	_ZN9CFeedInfoD2Ev @ 108 NONAME
	_ZN9CShowInfo10SetFeedUidEj @ 109 NONAME
	_ZN9CShowInfo10SetPubDateE5TTime @ 110 NONAME
	_ZN9CShowInfo10SetTrackNoEj @ 111 NONAME
	_ZN9CShowInfo11SetPlayTimeEj @ 112 NONAME
	_ZN9CShowInfo11SetPositionE25TTimeIntervalMicroSeconds @ 113 NONAME
	_ZN9CShowInfo11SetShowSizeEj @ 114 NONAME
	_ZN9CShowInfo11SetShowTypeE9TShowType @ 115 NONAME
	_ZN9CShowInfo12SetFileNameLERK7TDesC16 @ 116 NONAME
	_ZN9CShowInfo12SetPlayStateE10TPlayState @ 117 NONAME
	_ZN9CShowInfo13DownloadStateEv @ 118 NONAME
	_ZN9CShowInfo15SetDescriptionLERK7TDesC16 @ 119 NONAME
	_ZN9CShowInfo16SetDownloadStateE14TDownloadState @ 120 NONAME
	_ZN9CShowInfo4NewLEj @ 121 NONAME
	_ZN9CShowInfo6SetUidEj @ 122 NONAME
	_ZN9CShowInfo7FeedUidEv @ 123 NONAME
	_ZN9CShowInfo7SetUrlLERK7TDesC16 @ 124 NONAME
	_ZN9CShowInfo8ShowSizeEv @ 125 NONAME
	_ZN9CShowInfo8ShowTypeEv @ 126 NONAME
	_ZN9CShowInfo9PlayStateEv @ 127 NONAME
	_ZN9CShowInfo9SetTitleLERK7TDesC16 @ 128 NONAME
	_ZN9CShowInfoC1EPS_ @ 129 NONAME
	_ZN9CShowInfoC2EPS_ @ 130 NONAME
	_ZN9CShowInfoD0Ev @ 131 NONAME
	_ZN9CShowInfoD1Ev @ 132 NONAME
	_ZN9CShowInfoD2Ev @ 133 NONAME
	_ZNK9CFeedInfo11DescriptionEv @ 134 NONAME
	_ZNK9CFeedInfo13ImageFileNameEv @ 135 NONAME
	_ZNK9CFeedInfo3UrlEv @ 136 NONAME
	_ZNK9CFeedInfo4LinkEv @ 137 NONAME
	_ZNK9CFeedInfo5TitleEv @ 138 NONAME
	_ZNK9CFeedInfo8ImageUrlEv @ 139 NONAME
	_ZNK9CShowInfo11DescriptionEv @ 140 NONAME
	_ZNK9CShowInfo3UidEv @ 141 NONAME
	_ZNK9CShowInfo3UrlEv @ 142 NONAME
	_ZNK9CShowInfo5TitleEv @ 143 NONAME
	_ZNK9CShowInfo7PubDateEv @ 144 NONAME
	_ZNK9CShowInfo7TrackNoEv @ 145 NONAME
	_ZNK9CShowInfo8FileNameEv @ 146 NONAME
	_ZNK9CShowInfo8PlayTimeEv @ 147 NONAME
	_ZNK9CShowInfo8PositionEv @ 148 NONAME
	_ZTI10CFeedTimer @ 149 NONAME
	_ZTI11CFeedEngine @ 150 NONAME
	_ZTI11CFeedParser @ 151 NONAME
	_ZTI11CHttpClient @ 152 NONAME
	_ZTI11COpmlParser @ 153 NONAME
	_ZTI11CShowEngine @ 154 NONAME
	_ZTI12CSoundEngine @ 155 NONAME
	_ZTI13CPodcastModel @ 156 NONAME
	_ZTI15CMetaDataReader @ 157 NONAME
	_ZTI15CSettingsEngine @ 158 NONAME
	_ZTI17CHttpEventHandler @ 159 NONAME
	_ZTI18CTelephonyListener @ 160 NONAME
	_ZTI22CRemoteControlListener @ 161 NONAME
	_ZTI9CFeedInfo @ 162 NONAME
	_ZTI9CShowInfo @ 163 NONAME
	_ZTV10CFeedTimer @ 164 NONAME
	_ZTV11CFeedEngine @ 165 NONAME
	_ZTV11CFeedParser @ 166 NONAME
	_ZTV11CHttpClient @ 167 NONAME
	_ZTV11COpmlParser @ 168 NONAME
	_ZTV11CShowEngine @ 169 NONAME
	_ZTV12CSoundEngine @ 170 NONAME
	_ZTV13CPodcastModel @ 171 NONAME
	_ZTV15CMetaDataReader @ 172 NONAME
	_ZTV15CSettingsEngine @ 173 NONAME
	_ZTV17CHttpEventHandler @ 174 NONAME
	_ZTV18CTelephonyListener @ 175 NONAME
	_ZTV22CRemoteControlListener @ 176 NONAME
	_ZTV9CFeedInfo @ 177 NONAME
	_ZTV9CShowInfo @ 178 NONAME

