EXPORTS
	_ZN11CFeedEngine10UpdateFeedEP9CFeedInfo @ 1 NONAME
	_ZN11CFeedEngine11AddObserverEP19MFeedEngineObserver @ 2 NONAME
	_ZN11CFeedEngine11ClientStateEv @ 3 NONAME
	_ZN11CFeedEngine11RemoveFeedLEj @ 4 NONAME
	_ZN11CFeedEngine11UpdateFeedLEj @ 5 NONAME
	_ZN11CFeedEngine12ExportFeedsLER4TBufILi256EE @ 6 NONAME
	_ZN11CFeedEngine12ImportFeedsLERK7TDesC16 @ 7 NONAME
	_ZN11CFeedEngine14GetSortedFeedsEv @ 8 NONAME
	_ZN11CFeedEngine14GetStatsByFeedEjRjS0_ @ 9 NONAME
	_ZN11CFeedEngine14RemoveObserverEP19MFeedEngineObserver @ 10 NONAME
	_ZN11CFeedEngine14SearchForFeedLER7TDesC16 @ 11 NONAME
	_ZN11CFeedEngine15ActiveClientUidEv @ 12 NONAME
	_ZN11CFeedEngine15UpdateAllFeedsLEv @ 13 NONAME
	_ZN11CFeedEngine16AddSearchResultLEP9CFeedInfo @ 14 NONAME
	_ZN11CFeedEngine16GetFeedInfoByUidEj @ 15 NONAME
	_ZN11CFeedEngine16GetSearchResultsEv @ 16 NONAME
	_ZN11CFeedEngine18GetDownloadedStatsERjS0_ @ 17 NONAME
	_ZN11CFeedEngine20CancelUpdateAllFeedsEv @ 18 NONAME
	_ZN11CFeedEngine8AddFeedLERK9CFeedInfo @ 19 NONAME
	_ZN11CShowEngine10UpdateShowER9CShowInfo @ 20 NONAME
	_ZN11CShowEngine11AddObserverEP19MShowEngineObserver @ 21 NONAME
	_ZN11CShowEngine11DeleteShowLEji @ 22 NONAME
	_ZN11CShowEngine11GetMimeTypeERK7TDesC16R6TDes16 @ 23 NONAME
	_ZN11CShowEngine12AddDownloadLER9CShowInfo @ 24 NONAME
	_ZN11CShowEngine12GetAllShowsLER13RPointerArrayI9CShowInfoE @ 25 NONAME
	_ZN11CShowEngine12GetNewShowsLER13RPointerArrayI9CShowInfoE @ 26 NONAME
	_ZN11CShowEngine13GetShowByUidLEj @ 27 NONAME
	_ZN11CShowEngine13StopDownloadsEv @ 28 NONAME
	_ZN11CShowEngine14MetaDataReaderEv @ 29 NONAME
	_ZN11CShowEngine14RemoveObserverEP19MShowEngineObserver @ 30 NONAME
	_ZN11CShowEngine15GetShowsByFeedLER13RPointerArrayI9CShowInfoEj @ 31 NONAME
	_ZN11CShowEngine15RemoveDownloadLEj @ 32 NONAME
	_ZN11CShowEngine15ShowDownloadingEv @ 33 NONAME
	_ZN11CShowEngine16DownloadsStoppedEv @ 34 NONAME
	_ZN11CShowEngine16ResumeDownloadsLEv @ 35 NONAME
	_ZN11CShowEngine17DeletePlayedShowsER13RPointerArrayI9CShowInfoE @ 36 NONAME
	_ZN11CShowEngine18RemoveAllDownloadsEv @ 37 NONAME
	_ZN11CShowEngine19GetNextShowByTrackLEP9CShowInfo @ 38 NONAME
	_ZN11CShowEngine19GetShowsDownloadedLER13RPointerArrayI9CShowInfoE @ 39 NONAME
	_ZN11CShowEngine20DBGetShowByFileNameLE4TBufILi256EE @ 40 NONAME
	_ZN11CShowEngine20DeleteOldShowsByFeedEj @ 41 NONAME
	_ZN11CShowEngine20GetShowsDownloadingLER13RPointerArrayI9CShowInfoE @ 42 NONAME
	_ZN11CShowEngine21DeleteAllShowsByFeedLEji @ 43 NONAME
	_ZN11CShowEngine22GetNumDownloadingShowsEv @ 44 NONAME
	_ZN11CShowEngine22NotifyShowListUpdatedLEv @ 45 NONAME
	_ZN11CShowEngine4NewLER13CPodcastModel @ 46 NONAME
	_ZN11CShowEngine8AddShowLERK9CShowInfo @ 47 NONAME
	_ZN11CShowEngineD0Ev @ 48 NONAME
	_ZN11CShowEngineD1Ev @ 49 NONAME
	_ZN11CShowEngineD2Ev @ 50 NONAME
	_ZN12CSoundEngine11AddObserverEP20MSoundEngineObserver @ 51 NONAME
	_ZN12CSoundEngine11SetPositionEj @ 52 NONAME
	_ZN12CSoundEngine4PlayEv @ 53 NONAME
	_ZN12CSoundEngine4StopEi @ 54 NONAME
	_ZN12CSoundEngine5PauseEi @ 55 NONAME
	_ZN12CSoundEngine5StateEv @ 56 NONAME
	_ZN12CSoundEngine8PositionEv @ 57 NONAME
	_ZN12PodcastUtils13FixProtocolsLER6TDes16 @ 58 NONAME
	_ZN13CPodcastModel10FeedEngineEv @ 59 NONAME
	_ZN13CPodcastModel10ShowEngineEv @ 60 NONAME
	_ZN13CPodcastModel11GetAllShowsEv @ 61 NONAME
	_ZN13CPodcastModel11GetNewShowsEv @ 62 NONAME
	_ZN13CPodcastModel11SoundEngineEv @ 63 NONAME
	_ZN13CPodcastModel14ActiveFeedInfoEv @ 64 NONAME
	_ZN13CPodcastModel14ActiveShowListEv @ 65 NONAME
	_ZN13CPodcastModel14GetShowsByFeedEj @ 66 NONAME
	_ZN13CPodcastModel14PlayingPodcastEv @ 67 NONAME
	_ZN13CPodcastModel14SettingsEngineEv @ 68 NONAME
	_ZN13CPodcastModel16ConnectionEngineEv @ 69 NONAME
	_ZN13CPodcastModel17PlayPausePodcastLEP9CShowInfoi @ 70 NONAME
	_ZN13CPodcastModel17SetActiveFeedInfoEP9CFeedInfo @ 71 NONAME
	_ZN13CPodcastModel17SetPlayingPodcastEP9CShowInfo @ 72 NONAME
	_ZN13CPodcastModel18GetShowsDownloadedEv @ 73 NONAME
	_ZN13CPodcastModel19GetShowsDownloadingEv @ 74 NONAME
	_ZN13CPodcastModel19MarkSelectionPlayedEv @ 75 NONAME
	_ZN13CPodcastModel4NewLEv @ 76 NONAME
	_ZN13CPodcastModel6IAPIdsEv @ 77 NONAME
	_ZN13CPodcastModel8IAPNamesEv @ 78 NONAME
	_ZN15CSettingsEngine10SetBaseDirER4TBufILi256EE @ 79 NONAME
	_ZN15CSettingsEngine11SpecificIAPEv @ 80 NONAME
	_ZN15CSettingsEngine13SaveSettingsLEv @ 81 NONAME
	_ZN15CSettingsEngine14SetSpecificIAPEi @ 82 NONAME
	_ZN15CSettingsEngine14UpdateFeedTimeEv @ 83 NONAME
	_ZN15CSettingsEngine17SetUpdateFeedTimeE5TTime @ 84 NONAME
	_ZN15CSettingsEngine18UpdateFeedIntervalEv @ 85 NONAME
	_ZN15CSettingsEngine19UpdateAutomaticallyEv @ 86 NONAME
	_ZN15CSettingsEngine21DownloadAutomaticallyEv @ 87 NONAME
	_ZN15CSettingsEngine21SetUpdateFeedIntervalEi @ 88 NONAME
	_ZN15CSettingsEngine22SetUpdateAutomaticallyE18TAutoUpdateSetting @ 89 NONAME
	_ZN15CSettingsEngine24SetDownloadAutomaticallyEi @ 90 NONAME
	_ZN15CSettingsEngine7BaseDirEv @ 91 NONAME
	_ZN9CFeedInfo12SetBuildDateE5TTime @ 92 NONAME
	_ZN9CFeedInfo12SetImageUrlLERK7TDesC16 @ 93 NONAME
	_ZN9CFeedInfo12SetLastErrorEi @ 94 NONAME
	_ZN9CFeedInfo14SetCustomTitleEv @ 95 NONAME
	_ZN9CFeedInfo14SetLastUpdatedE5TTime @ 96 NONAME
	_ZN9CFeedInfo15SetDescriptionLERK7TDesC16 @ 97 NONAME
	_ZN9CFeedInfo17SetImageFileNameLERK7TDesC16 @ 98 NONAME
	_ZN9CFeedInfo4NewLEv @ 99 NONAME
	_ZN9CFeedInfo5NewLCEv @ 100 NONAME
	_ZN9CFeedInfo7SetUrlLERK7TDesC16 @ 101 NONAME
	_ZN9CFeedInfo8SetLinkLERK7TDesC16 @ 102 NONAME
	_ZN9CFeedInfo9SetTitleLERK7TDesC16 @ 103 NONAME
	_ZN9CFeedInfoD0Ev @ 104 NONAME
	_ZN9CFeedInfoD1Ev @ 105 NONAME
	_ZN9CFeedInfoD2Ev @ 106 NONAME
	_ZN9CShowInfo10SetFeedUidEj @ 107 NONAME
	_ZN9CShowInfo10SetPubDateE5TTime @ 108 NONAME
	_ZN9CShowInfo10SetTrackNoEj @ 109 NONAME
	_ZN9CShowInfo11SetPlayTimeEj @ 110 NONAME
	_ZN9CShowInfo11SetPositionE25TTimeIntervalMicroSeconds @ 111 NONAME
	_ZN9CShowInfo11SetShowSizeEj @ 112 NONAME
	_ZN9CShowInfo11SetShowTypeE9TShowType @ 113 NONAME
	_ZN9CShowInfo12SetFileNameLERK7TDesC16 @ 114 NONAME
	_ZN9CShowInfo12SetLastErrorEi @ 115 NONAME
	_ZN9CShowInfo12SetPlayStateE10TPlayState @ 116 NONAME
	_ZN9CShowInfo15SetDescriptionLERK7TDesC16 @ 117 NONAME
	_ZN9CShowInfo16SetDownloadStateE14TDownloadState @ 118 NONAME
	_ZN9CShowInfo4NewLEj @ 119 NONAME
	_ZN9CShowInfo5NewLCEj @ 120 NONAME
	_ZN9CShowInfo6SetUidEj @ 121 NONAME
	_ZN9CShowInfo7SetUrlLERK7TDesC16 @ 122 NONAME
	_ZN9CShowInfo9SetTitleLERK7TDesC16 @ 123 NONAME
	_ZN9CShowInfoC1EPS_ @ 124 NONAME
	_ZN9CShowInfoC2EPS_ @ 125 NONAME
	_ZN9CShowInfoD0Ev @ 126 NONAME
	_ZN9CShowInfoD1Ev @ 127 NONAME
	_ZN9CShowInfoD2Ev @ 128 NONAME
	_ZNK9CFeedInfo11CustomTitleEv @ 129 NONAME
	_ZNK9CFeedInfo11DescriptionEv @ 130 NONAME
	_ZNK9CFeedInfo11LastUpdatedEv @ 131 NONAME
	_ZNK9CFeedInfo13ImageFileNameEv @ 132 NONAME
	_ZNK9CFeedInfo3UidEv @ 133 NONAME
	_ZNK9CFeedInfo3UrlEv @ 134 NONAME
	_ZNK9CFeedInfo4LinkEv @ 135 NONAME
	_ZNK9CFeedInfo5CopyLEv @ 136 NONAME
	_ZNK9CFeedInfo5TitleEv @ 137 NONAME
	_ZNK9CFeedInfo8ImageUrlEv @ 138 NONAME
	_ZNK9CFeedInfo9BuildDateEv @ 139 NONAME
	_ZNK9CFeedInfo9LastErrorEv @ 140 NONAME
	_ZNK9CShowInfo11DescriptionEv @ 141 NONAME
	_ZNK9CShowInfo13DownloadStateEv @ 142 NONAME
	_ZNK9CShowInfo3UidEv @ 143 NONAME
	_ZNK9CShowInfo3UrlEv @ 144 NONAME
	_ZNK9CShowInfo5TitleEv @ 145 NONAME
	_ZNK9CShowInfo7FeedUidEv @ 146 NONAME
	_ZNK9CShowInfo7PubDateEv @ 147 NONAME
	_ZNK9CShowInfo7TrackNoEv @ 148 NONAME
	_ZNK9CShowInfo8FileNameEv @ 149 NONAME
	_ZNK9CShowInfo8PlayTimeEv @ 150 NONAME
	_ZNK9CShowInfo8PositionEv @ 151 NONAME
	_ZNK9CShowInfo8ShowSizeEv @ 152 NONAME
	_ZNK9CShowInfo8ShowTypeEv @ 153 NONAME
	_ZNK9CShowInfo9LastErrorEv @ 154 NONAME
	_ZNK9CShowInfo9PlayStateEv @ 155 NONAME
	_ZTI10CFeedTimer @ 156 NONAME
	_ZTI11CFeedEngine @ 157 NONAME
	_ZTI11CFeedParser @ 158 NONAME
	_ZTI11CHttpClient @ 159 NONAME
	_ZTI11COpmlParser @ 160 NONAME
	_ZTI11CShowEngine @ 161 NONAME
	_ZTI12CSoundEngine @ 162 NONAME
	_ZTI13CPodcastModel @ 163 NONAME
	_ZTI15CMetaDataReader @ 164 NONAME
	_ZTI15CSettingsEngine @ 165 NONAME
	_ZTI17CConnectionEngine @ 166 NONAME
	_ZTI17CHttpEventHandler @ 167 NONAME
	_ZTI9CFeedInfo @ 168 NONAME
	_ZTI9CShowInfo @ 169 NONAME
	_ZTV10CFeedTimer @ 170 NONAME
	_ZTV11CFeedEngine @ 171 NONAME
	_ZTV11CFeedParser @ 172 NONAME
	_ZTV11CHttpClient @ 173 NONAME
	_ZTV11COpmlParser @ 174 NONAME
	_ZTV11CShowEngine @ 175 NONAME
	_ZTV12CSoundEngine @ 176 NONAME
	_ZTV13CPodcastModel @ 177 NONAME
	_ZTV15CMetaDataReader @ 178 NONAME
	_ZTV15CSettingsEngine @ 179 NONAME
	_ZTV17CConnectionEngine @ 180 NONAME
	_ZTV17CHttpEventHandler @ 181 NONAME
	_ZTV9CFeedInfo @ 182 NONAME
	_ZTV9CShowInfo @ 183 NONAME
	_ZN13CPodcastModel14UpdateIAPListLEv @ 184 NONAME
	_ZN13CPodcastModel15UpdateSNAPListLEv @ 185 NONAME
	_ZN13CPodcastModel7SNAPIdsEv @ 186 NONAME
	_ZN13CPodcastModel9SNAPNamesEv @ 187 NONAME

