EXPORTS
	??0CShowInfo@@QAE@PAV0@@Z @ 1 NONAME ; CShowInfo::CShowInfo(class CShowInfo *)
	??1CFeedInfo@@UAE@XZ @ 2 NONAME ; CFeedInfo::~CFeedInfo(void)
	??1CPodcastModel@@UAE@XZ @ 3 NONAME ; CPodcastModel::~CPodcastModel(void)
	??1CShowInfo@@UAE@XZ @ 4 NONAME ; CShowInfo::~CShowInfo(void)
	?ActiveClientUid@CFeedEngine@@QAEIXZ @ 5 NONAME ; unsigned int CFeedEngine::ActiveClientUid(void)
	?ActiveFeedInfo@CPodcastModel@@QAEPAVCFeedInfo@@XZ @ 6 NONAME ; class CFeedInfo * CPodcastModel::ActiveFeedInfo(void)
	?ActiveShowList@CPodcastModel@@QAEAAV?$RPointerArray@VCShowInfo@@@@XZ @ 7 NONAME ; class RPointerArray<class CShowInfo> & CPodcastModel::ActiveShowList(void)
	?AddDownloadL@CShowEngine@@QAEXPAVCShowInfo@@@Z @ 8 NONAME ; void CShowEngine::AddDownloadL(class CShowInfo *)
	?AddObserver@CFeedEngine@@QAEXPAVMFeedEngineObserver@@@Z @ 9 NONAME ; void CFeedEngine::AddObserver(class MFeedEngineObserver *)
	?AddObserver@CShowEngine@@QAEXPAVMShowEngineObserver@@@Z @ 10 NONAME ; void CShowEngine::AddObserver(class MShowEngineObserver *)
	?AddObserver@CSoundEngine@@QAEXPAVMSoundEngineObserver@@@Z @ 11 NONAME ; void CSoundEngine::AddObserver(class MSoundEngineObserver *)
	?BaseDir@CSettingsEngine@@QAEAAV?$TBuf@$0BAA@@@XZ @ 12 NONAME ; class TBuf<256> & CSettingsEngine::BaseDir(void)
	?ClientState@CFeedEngine@@QAE?AW4TClientState@@XZ @ 13 NONAME ; enum TClientState CFeedEngine::ClientState(void)
	?DeleteAllShowsByFeedL@CShowEngine@@QAEXIH@Z @ 14 NONAME ; void CShowEngine::DeleteAllShowsByFeedL(unsigned int, int)
	?DeletePlayedShows@CShowEngine@@QAEXAAV?$RPointerArray@VCShowInfo@@@@@Z @ 15 NONAME ; void CShowEngine::DeletePlayedShows(class RPointerArray<class CShowInfo> &)
	?DeleteShowL@CShowEngine@@QAEXIH@Z @ 16 NONAME ; void CShowEngine::DeleteShowL(unsigned int, int)
	?Description@CFeedInfo@@QBEABVTDesC16@@XZ @ 17 NONAME ; class TDesC16 const & CFeedInfo::Description(void) const
	?Description@CShowInfo@@QBEABVTDesC16@@XZ @ 18 NONAME ; class TDesC16 const & CShowInfo::Description(void) const
	?DownloadAutomatically@CSettingsEngine@@QAEHXZ @ 19 NONAME ; int CSettingsEngine::DownloadAutomatically(void)
	?DownloadState@CShowInfo@@QAE?AW4TDownloadState@@XZ @ 20 NONAME ; enum TDownloadState CShowInfo::DownloadState(void)
	?DownloadsStopped@CShowEngine@@QAEHXZ @ 21 NONAME ; int CShowEngine::DownloadsStopped(void)
	?ExportFeedsL@CFeedEngine@@QAEHAAV?$TBuf@$0BAA@@@@Z @ 22 NONAME ; int CFeedEngine::ExportFeedsL(class TBuf<256> &)
	?FeedEngine@CPodcastModel@@QAEAAVCFeedEngine@@XZ @ 23 NONAME ; class CFeedEngine & CPodcastModel::FeedEngine(void)
	?FeedUid@CShowInfo@@QAEIXZ @ 24 NONAME ; unsigned int CShowInfo::FeedUid(void)
	?FileName@CShowInfo@@QBEABVTDesC16@@XZ @ 25 NONAME ; class TDesC16 const & CShowInfo::FileName(void) const
	?FixProtocolsL@PodcastUtils@@SAXAAVTDes16@@@Z @ 26 NONAME ; void PodcastUtils::FixProtocolsL(class TDes16 &)
	?GetAllShows@CPodcastModel@@QAEXXZ @ 27 NONAME ; void CPodcastModel::GetAllShows(void)
	?GetDownloadedStats@CFeedEngine@@QAEXAAI0@Z @ 28 NONAME ; void CFeedEngine::GetDownloadedStats(unsigned int &, unsigned int &)
	?GetFeedInfoByUid@CFeedEngine@@QAEPAVCFeedInfo@@I@Z @ 29 NONAME ; class CFeedInfo * CFeedEngine::GetFeedInfoByUid(unsigned int)
	?GetMimeType@CShowEngine@@QAEXABVTDesC16@@AAVTDes16@@@Z @ 30 NONAME ; void CShowEngine::GetMimeType(class TDesC16 const &, class TDes16 &)
	?GetNewShows@CPodcastModel@@QAEXXZ @ 31 NONAME ; void CPodcastModel::GetNewShows(void)
	?GetShowByUidL@CShowEngine@@QAEPAVCShowInfo@@I@Z @ 32 NONAME ; class CShowInfo * CShowEngine::GetShowByUidL(unsigned int)
	?GetShowsByFeed@CPodcastModel@@QAEXI@Z @ 33 NONAME ; void CPodcastModel::GetShowsByFeed(unsigned int)
	?GetShowsDownloaded@CPodcastModel@@QAEXXZ @ 34 NONAME ; void CPodcastModel::GetShowsDownloaded(void)
	?GetShowsDownloading@CPodcastModel@@QAEXXZ @ 35 NONAME ; void CPodcastModel::GetShowsDownloading(void)
	?GetSortedFeeds@CFeedEngine@@QAEABV?$RPointerArray@VCFeedInfo@@@@XZ @ 36 NONAME ; class RPointerArray<class CFeedInfo> const & CFeedEngine::GetSortedFeeds(void)
	?IAPIds@CPodcastModel@@QAEAAV?$RArray@VTPodcastIAPItem@@@@XZ @ 37 NONAME ; class RArray<class TPodcastIAPItem> & CPodcastModel::IAPIds(void)
	?IAPNames@CPodcastModel@@QAEPAVCDesC16ArrayFlat@@XZ @ 38 NONAME ; class CDesC16ArrayFlat * CPodcastModel::IAPNames(void)
	?ImageFileName@CFeedInfo@@QBEABVTDesC16@@XZ @ 39 NONAME ; class TDesC16 const & CFeedInfo::ImageFileName(void) const
	?ImageUrl@CFeedInfo@@QBEABVTDesC16@@XZ @ 40 NONAME ; class TDesC16 const & CFeedInfo::ImageUrl(void) const
	?ImportFeedsL@CFeedEngine@@QAEXABVTDesC16@@@Z @ 41 NONAME ; void CFeedEngine::ImportFeedsL(class TDesC16 const &)
	?Link@CFeedInfo@@QBEABVTDesC16@@XZ @ 42 NONAME ; class TDesC16 const & CFeedInfo::Link(void) const
	?MarkSelectionPlayed@CPodcastModel@@QAEXXZ @ 43 NONAME ; void CPodcastModel::MarkSelectionPlayed(void)
	?NewL@CFeedInfo@@SAPAV1@XZ @ 44 NONAME ; class CFeedInfo * CFeedInfo::NewL(void)
	?NewL@CPodcastModel@@SAPAV1@XZ @ 45 NONAME ; class CPodcastModel * CPodcastModel::NewL(void)
	?NewL@CShowInfo@@SAPAV1@I@Z @ 46 NONAME ; class CShowInfo * CShowInfo::NewL(unsigned int)
	?NewLC@CFeedInfo@@SAPAV1@XZ @ 47 NONAME ; class CFeedInfo * CFeedInfo::NewLC(void)
	?Pause@CSoundEngine@@QAEXH@Z @ 48 NONAME ; void CSoundEngine::Pause(int)
	?Play@CSoundEngine@@QAEXXZ @ 49 NONAME ; void CSoundEngine::Play(void)
	?PlayPausePodcastL@CPodcastModel@@QAEXPAVCShowInfo@@H@Z @ 50 NONAME ; void CPodcastModel::PlayPausePodcastL(class CShowInfo *, int)
	?PlayState@CShowInfo@@QAE?AW4TPlayState@@XZ @ 51 NONAME ; enum TPlayState CShowInfo::PlayState(void)
	?PlayTime@CShowInfo@@QBEIXZ @ 52 NONAME ; unsigned int CShowInfo::PlayTime(void) const
	?PlayingPodcast@CPodcastModel@@QAEPAVCShowInfo@@XZ @ 53 NONAME ; class CShowInfo * CPodcastModel::PlayingPodcast(void)
	?Position@CShowInfo@@QBE?AVTTimeIntervalMicroSeconds@@XZ @ 54 NONAME ; class TTimeIntervalMicroSeconds CShowInfo::Position(void) const
	?Position@CSoundEngine@@QAE?AVTTimeIntervalMicroSeconds@@XZ @ 55 NONAME ; class TTimeIntervalMicroSeconds CSoundEngine::Position(void)
	?PubDate@CShowInfo@@QBE?BVTTime@@XZ @ 56 NONAME ; class TTime const CShowInfo::PubDate(void) const
	?RemoveAllDownloads@CShowEngine@@QAEXXZ @ 57 NONAME ; void CShowEngine::RemoveAllDownloads(void)
	?RemoveDownloadL@CShowEngine@@QAEHI@Z @ 58 NONAME ; int CShowEngine::RemoveDownloadL(unsigned int)
	?RemoveObserver@CFeedEngine@@QAEXPAVMFeedEngineObserver@@@Z @ 59 NONAME ; void CFeedEngine::RemoveObserver(class MFeedEngineObserver *)
	?RemoveObserver@CShowEngine@@QAEXPAVMShowEngineObserver@@@Z @ 60 NONAME ; void CShowEngine::RemoveObserver(class MShowEngineObserver *)
	?ResumeDownloadsL@CShowEngine@@QAEXXZ @ 61 NONAME ; void CShowEngine::ResumeDownloadsL(void)
	?SaveSettingsL@CSettingsEngine@@QAEXXZ @ 62 NONAME ; void CSettingsEngine::SaveSettingsL(void)
	?SetActiveFeedInfo@CPodcastModel@@QAEXPAVCFeedInfo@@@Z @ 63 NONAME ; void CPodcastModel::SetActiveFeedInfo(class CFeedInfo *)
	?SetBaseDir@CSettingsEngine@@QAEXAAV?$TBuf@$0BAA@@@@Z @ 64 NONAME ; void CSettingsEngine::SetBaseDir(class TBuf<256> &)
	?SetBuildDate@CFeedInfo@@QAEXVTTime@@@Z @ 65 NONAME ; void CFeedInfo::SetBuildDate(class TTime)
	?SetCustomTitle@CFeedInfo@@QAEXXZ @ 66 NONAME ; void CFeedInfo::SetCustomTitle(void)
	?SetDescriptionL@CFeedInfo@@QAEXABVTDesC16@@@Z @ 67 NONAME ; void CFeedInfo::SetDescriptionL(class TDesC16 const &)
	?SetDescriptionL@CShowInfo@@QAEXABVTDesC16@@@Z @ 68 NONAME ; void CShowInfo::SetDescriptionL(class TDesC16 const &)
	?SetDownloadAutomatically@CSettingsEngine@@QAEXH@Z @ 69 NONAME ; void CSettingsEngine::SetDownloadAutomatically(int)
	?SetDownloadState@CShowInfo@@QAEXW4TDownloadState@@@Z @ 70 NONAME ; void CShowInfo::SetDownloadState(enum TDownloadState)
	?SetFeedUid@CShowInfo@@QAEXI@Z @ 71 NONAME ; void CShowInfo::SetFeedUid(unsigned int)
	?SetFileNameL@CShowInfo@@QAEXABVTDesC16@@@Z @ 72 NONAME ; void CShowInfo::SetFileNameL(class TDesC16 const &)
	?SetImageFileNameL@CFeedInfo@@QAEXABVTDesC16@@@Z @ 73 NONAME ; void CFeedInfo::SetImageFileNameL(class TDesC16 const &)
	?SetImageUrlL@CFeedInfo@@QAEXABVTDesC16@@@Z @ 74 NONAME ; void CFeedInfo::SetImageUrlL(class TDesC16 const &)
	?SetLastUpdated@CFeedInfo@@QAEXVTTime@@@Z @ 75 NONAME ; void CFeedInfo::SetLastUpdated(class TTime)
	?SetLinkL@CFeedInfo@@QAEXABVTDesC16@@@Z @ 76 NONAME ; void CFeedInfo::SetLinkL(class TDesC16 const &)
	?SetPlayState@CShowInfo@@QAEXW4TPlayState@@@Z @ 77 NONAME ; void CShowInfo::SetPlayState(enum TPlayState)
	?SetPlayTime@CShowInfo@@QAEXI@Z @ 78 NONAME ; void CShowInfo::SetPlayTime(unsigned int)
	?SetPlayingPodcast@CPodcastModel@@QAEXPAVCShowInfo@@@Z @ 79 NONAME ; void CPodcastModel::SetPlayingPodcast(class CShowInfo *)
	?SetPosition@CShowInfo@@QAEXVTTimeIntervalMicroSeconds@@@Z @ 80 NONAME ; void CShowInfo::SetPosition(class TTimeIntervalMicroSeconds)
	?SetPosition@CSoundEngine@@QAEXI@Z @ 81 NONAME ; void CSoundEngine::SetPosition(unsigned int)
	?SetPubDate@CShowInfo@@QAEXVTTime@@@Z @ 82 NONAME ; void CShowInfo::SetPubDate(class TTime)
	?SetShowSize@CShowInfo@@QAEXI@Z @ 83 NONAME ; void CShowInfo::SetShowSize(unsigned int)
	?SetShowType@CShowInfo@@QAEXW4TShowType@@@Z @ 84 NONAME ; void CShowInfo::SetShowType(enum TShowType)
	?SetSpecificIAP@CSettingsEngine@@QAEXH@Z @ 85 NONAME ; void CSettingsEngine::SetSpecificIAP(int)
	?SetTitleL@CFeedInfo@@QAEXABVTDesC16@@@Z @ 86 NONAME ; void CFeedInfo::SetTitleL(class TDesC16 const &)
	?SetTitleL@CShowInfo@@QAEXABVTDesC16@@@Z @ 87 NONAME ; void CShowInfo::SetTitleL(class TDesC16 const &)
	?SetTrackNo@CShowInfo@@QAEXI@Z @ 88 NONAME ; void CShowInfo::SetTrackNo(unsigned int)
	?SetUid@CShowInfo@@QAEXI@Z @ 89 NONAME ; void CShowInfo::SetUid(unsigned int)
	?SetUpdateAutomatically@CSettingsEngine@@QAEXW4TAutoUpdateSetting@@@Z @ 90 NONAME ; void CSettingsEngine::SetUpdateAutomatically(enum TAutoUpdateSetting)
	?SetUpdateFeedInterval@CSettingsEngine@@QAEXH@Z @ 91 NONAME ; void CSettingsEngine::SetUpdateFeedInterval(int)
	?SetUpdateFeedTime@CSettingsEngine@@QAEXVTTime@@@Z @ 92 NONAME ; void CSettingsEngine::SetUpdateFeedTime(class TTime)
	?SetUrlL@CFeedInfo@@QAEXABVTDesC16@@@Z @ 93 NONAME ; void CFeedInfo::SetUrlL(class TDesC16 const &)
	?SetUrlL@CShowInfo@@QAEXABVTDesC16@@@Z @ 94 NONAME ; void CShowInfo::SetUrlL(class TDesC16 const &)
	?SettingsEngine@CPodcastModel@@QAEAAVCSettingsEngine@@XZ @ 95 NONAME ; class CSettingsEngine & CPodcastModel::SettingsEngine(void)
	?ShowDownloading@CShowEngine@@QAEPAVCShowInfo@@XZ @ 96 NONAME ; class CShowInfo * CShowEngine::ShowDownloading(void)
	?ShowEngine@CPodcastModel@@QAEAAVCShowEngine@@XZ @ 97 NONAME ; class CShowEngine & CPodcastModel::ShowEngine(void)
	?ShowSize@CShowInfo@@QAEIXZ @ 98 NONAME ; unsigned int CShowInfo::ShowSize(void)
	?ShowType@CShowInfo@@QAE?AW4TShowType@@XZ @ 99 NONAME ; enum TShowType CShowInfo::ShowType(void)
	?SoundEngine@CPodcastModel@@QAEAAVCSoundEngine@@XZ @ 100 NONAME ; class CSoundEngine & CPodcastModel::SoundEngine(void)
	?SpecificIAP@CSettingsEngine@@QAEHXZ @ 101 NONAME ; int CSettingsEngine::SpecificIAP(void)
	?State@CSoundEngine@@QAE?AW4TSoundEngineState@@XZ @ 102 NONAME ; enum TSoundEngineState CSoundEngine::State(void)
	?Stop@CSoundEngine@@QAEXH@Z @ 103 NONAME ; void CSoundEngine::Stop(int)
	?StopDownloads@CShowEngine@@QAEXXZ @ 104 NONAME ; void CShowEngine::StopDownloads(void)
	?Title@CFeedInfo@@QBEABVTDesC16@@XZ @ 105 NONAME ; class TDesC16 const & CFeedInfo::Title(void) const
	?Title@CShowInfo@@QBEABVTDesC16@@XZ @ 106 NONAME ; class TDesC16 const & CShowInfo::Title(void) const
	?TrackNo@CShowInfo@@QBEIXZ @ 107 NONAME ; unsigned int CShowInfo::TrackNo(void) const
	?Uid@CShowInfo@@QBEIXZ @ 108 NONAME ; unsigned int CShowInfo::Uid(void) const
	?UpdateAllFeedsL@CFeedEngine@@QAEXXZ @ 109 NONAME ; void CFeedEngine::UpdateAllFeedsL(void)
	?UpdateAutomatically@CSettingsEngine@@QAE?AW4TAutoUpdateSetting@@XZ @ 110 NONAME ; enum TAutoUpdateSetting CSettingsEngine::UpdateAutomatically(void)
	?UpdateFeed@CFeedEngine@@QAEXPAVCFeedInfo@@@Z @ 111 NONAME ; void CFeedEngine::UpdateFeed(class CFeedInfo *)
	?UpdateFeedInterval@CSettingsEngine@@QAEHXZ @ 112 NONAME ; int CSettingsEngine::UpdateFeedInterval(void)
	?UpdateFeedL@CFeedEngine@@QAEHI@Z @ 113 NONAME ; int CFeedEngine::UpdateFeedL(unsigned int)
	?UpdateFeedTime@CSettingsEngine@@QAE?AVTTime@@XZ @ 114 NONAME ; class TTime CSettingsEngine::UpdateFeedTime(void)
	?UpdateShow@CShowEngine@@QAEXPAVCShowInfo@@@Z @ 115 NONAME ; void CShowEngine::UpdateShow(class CShowInfo *)
	?Url@CFeedInfo@@QBEABVTDesC16@@XZ @ 116 NONAME ; class TDesC16 const & CFeedInfo::Url(void) const
	?Url@CShowInfo@@QBEABVTDesC16@@XZ @ 117 NONAME ; class TDesC16 const & CShowInfo::Url(void) const
	?RemoveFeedL@CFeedEngine@@QAEXI@Z @ 118 NONAME ; void CFeedEngine::RemoveFeedL(unsigned int)
	??1CShowEngine@@UAE@XZ @ 119 NONAME ; CShowEngine::~CShowEngine(void)
	?DBGetShowByFileNameL@CShowEngine@@QAEPAVCShowInfo@@V?$TBuf@$0BAA@@@@Z @ 120 NONAME ; class CShowInfo * CShowEngine::DBGetShowByFileNameL(class TBuf<256>)
	?DeleteOldShowsByFeed@CShowEngine@@QAEXI@Z @ 121 NONAME ; void CShowEngine::DeleteOldShowsByFeed(unsigned int)
	?GetAllShowsL@CShowEngine@@QAEXAAV?$RPointerArray@VCShowInfo@@@@@Z @ 122 NONAME ; void CShowEngine::GetAllShowsL(class RPointerArray<class CShowInfo> &)
	?GetNewShowsL@CShowEngine@@QAEXAAV?$RPointerArray@VCShowInfo@@@@@Z @ 123 NONAME ; void CShowEngine::GetNewShowsL(class RPointerArray<class CShowInfo> &)
	?GetNextShowByTrackL@CShowEngine@@QAEPAVCShowInfo@@PAV2@@Z @ 124 NONAME ; class CShowInfo * CShowEngine::GetNextShowByTrackL(class CShowInfo *)
	?GetNumDownloadingShows@CShowEngine@@QAEHXZ @ 125 NONAME ; int CShowEngine::GetNumDownloadingShows(void)
	?GetShowsByFeedL@CShowEngine@@QAEXAAV?$RPointerArray@VCShowInfo@@@@I@Z @ 126 NONAME ; void CShowEngine::GetShowsByFeedL(class RPointerArray<class CShowInfo> &, unsigned int)
	?GetShowsDownloadedL@CShowEngine@@QAEXAAV?$RPointerArray@VCShowInfo@@@@@Z @ 127 NONAME ; void CShowEngine::GetShowsDownloadedL(class RPointerArray<class CShowInfo> &)
	?GetShowsDownloadingL@CShowEngine@@QAEXAAV?$RPointerArray@VCShowInfo@@@@@Z @ 128 NONAME ; void CShowEngine::GetShowsDownloadingL(class RPointerArray<class CShowInfo> &)
	?MetaDataReader@CShowEngine@@QAEAAVCMetaDataReader@@XZ @ 129 NONAME ; class CMetaDataReader & CShowEngine::MetaDataReader(void)
	?NewL@CShowEngine@@SAPAV1@AAVCPodcastModel@@@Z @ 130 NONAME ; class CShowEngine * CShowEngine::NewL(class CPodcastModel &)
	?NewLC@CShowInfo@@SAPAV1@I@Z @ 131 NONAME ; class CShowInfo * CShowInfo::NewLC(unsigned int)
	?AddShowL@CShowEngine@@QAEHPAVCShowInfo@@@Z @ 132 NONAME ; int CShowEngine::AddShowL(class CShowInfo *)
	?NotifyShowListUpdatedL@CShowEngine@@QAEXXZ @ 133 NONAME ; void CShowEngine::NotifyShowListUpdatedL(void)
	?CancelUpdateAllFeeds@CFeedEngine@@QAEXXZ @ 134 NONAME ; void CFeedEngine::CancelUpdateAllFeeds(void)
	?ConnectionEngine@CPodcastModel@@QAEAAVCConnectionEngine@@XZ @ 135 NONAME ; class CConnectionEngine & CPodcastModel::ConnectionEngine(void)
	?SetLastError@CFeedInfo@@QAEXH@Z @ 136 NONAME ; void CFeedInfo::SetLastError(int)
	?SetLastError@CShowInfo@@QAEXH@Z @ 137 NONAME ; void CShowInfo::SetLastError(int)
	?LastError@CFeedInfo@@QBEHXZ @ 138 NONAME ; int CFeedInfo::LastError(void) const
	?LastError@CShowInfo@@QBEHXZ @ 139 NONAME ; int CShowInfo::LastError(void) const
	?AddSearchResultL@CFeedEngine@@QAEXPAVCFeedInfo@@@Z @ 140 NONAME ; void CFeedEngine::AddSearchResultL(class CFeedInfo *)
	?GetSearchResults@CFeedEngine@@QAEABV?$RPointerArray@VCFeedInfo@@@@XZ @ 141 NONAME ; class RPointerArray<class CFeedInfo> const & CFeedEngine::GetSearchResults(void)
	?GetStatsByFeed@CFeedEngine@@QAEXIAAI0@Z @ 142 NONAME ; void CFeedEngine::GetStatsByFeed(unsigned int, unsigned int &, unsigned int &)
	?SearchForFeedL@CFeedEngine@@QAEXAAVTDesC16@@@Z @ 143 NONAME ; void CFeedEngine::SearchForFeedL(class TDesC16 &)
	?AddFeedL@CFeedEngine@@QAEHABVCFeedInfo@@@Z @ 144 NONAME ; int CFeedEngine::AddFeedL(class CFeedInfo const &)
	?BuildDate@CFeedInfo@@QBE?AVTTime@@XZ @ 145 NONAME ; class TTime CFeedInfo::BuildDate(void) const
	?CopyL@CFeedInfo@@QBEPAV1@XZ @ 146 NONAME ; class CFeedInfo * CFeedInfo::CopyL(void) const
	?CustomTitle@CFeedInfo@@QBEHXZ @ 147 NONAME ; int CFeedInfo::CustomTitle(void) const
	?LastUpdated@CFeedInfo@@QBE?AVTTime@@XZ @ 148 NONAME ; class TTime CFeedInfo::LastUpdated(void) const
	?Uid@CFeedInfo@@QBEIXZ @ 149 NONAME ; unsigned int CFeedInfo::Uid(void) const

