EXPORTS
	_ZN11CFeedEngine10RemoveFeedEj @ 1 NONAME
	_ZN11CFeedEngine10UpdateFeedEP9CFeedInfo @ 2 NONAME
	_ZN11CFeedEngine11AddObserverEP19MFeedEngineObserver @ 3 NONAME
	_ZN11CFeedEngine11ClientStateEv @ 4 NONAME
	_ZN11CFeedEngine11ImportBookLERK7TDesC16S2_ @ 5 NONAME
	_ZN11CFeedEngine11UpdateFeedLEj @ 6 NONAME
	_ZN11CFeedEngine12ExportFeedsLER4TBufILi256EE @ 7 NONAME
	_ZN11CFeedEngine12ImportFeedsLERK7TDesC16 @ 8 NONAME
	_ZN11CFeedEngine14GetSortedFeedsEv @ 9 NONAME
	_ZN11CFeedEngine14RemoveObserverEP19MFeedEngineObserver @ 10 NONAME
	_ZN11CFeedEngine15ActiveClientUidEv @ 11 NONAME
	_ZN11CFeedEngine7AddFeedEP9CFeedInfo @ 12 NONAME
	_ZN11CShowEngine10DeleteShowEji @ 13 NONAME
	_ZN11CShowEngine10UpdateShowEP9CShowInfo @ 14 NONAME
	_ZN11CShowEngine11AddObserverEP19MShowEngineObserver @ 15 NONAME
	_ZN11CShowEngine11CheckFilesLEv @ 16 NONAME
	_ZN11CShowEngine11GetMimeTypeERK7TDesC16R6TDes16 @ 17 NONAME
	_ZN11CShowEngine13StopDownloadsEv @ 18 NONAME
	_ZN11CShowEngine14RemoveDownloadEj @ 19 NONAME
	_ZN11CShowEngine14RemoveObserverEP19MShowEngineObserver @ 20 NONAME
	_ZN11CShowEngine15ResumeDownloadsEv @ 21 NONAME
	_ZN11CShowEngine15ShowDownloadingEv @ 22 NONAME
	_ZN11CShowEngine16DownloadsStoppedEv @ 23 NONAME
	_ZN11CShowEngine17DeletePlayedShowsER13RPointerArrayI9CShowInfoE @ 24 NONAME
	_ZN11CShowEngine23GetNumDownloadingShowsLEv @ 25 NONAME
	_ZN12CSoundEngine10VolumeDownEv @ 26 NONAME
	_ZN12CSoundEngine11AddObserverEP20MSoundEngineObserver @ 27 NONAME
	_ZN12CSoundEngine11SetPositionEj @ 28 NONAME
	_ZN12CSoundEngine4PlayEv @ 29 NONAME
	_ZN12CSoundEngine4StopEi @ 30 NONAME
	_ZN12CSoundEngine5PauseEi @ 31 NONAME
	_ZN12CSoundEngine5StateEv @ 32 NONAME
	_ZN12CSoundEngine8PlayTimeEv @ 33 NONAME
	_ZN12CSoundEngine8PositionEv @ 34 NONAME
	_ZN12CSoundEngine8VolumeUpEv @ 35 NONAME
	_ZN12PodcastUtils13FixProtocolsLER6TDes16 @ 36 NONAME
	_ZN13CPodcastModel10FeedEngineEv @ 37 NONAME
	_ZN13CPodcastModel10ShowEngineEv @ 38 NONAME
	_ZN13CPodcastModel11GetAllShowsEv @ 39 NONAME
	_ZN13CPodcastModel11GetNewShowsEv @ 40 NONAME
	_ZN13CPodcastModel11SoundEngineEv @ 41 NONAME
	_ZN13CPodcastModel14GetShowsByFeedEj @ 42 NONAME
	_ZN13CPodcastModel14PlayingPodcastEv @ 43 NONAME
	_ZN13CPodcastModel14SettingsEngineEv @ 44 NONAME
	_ZN13CPodcastModel17SetPlayingPodcastEP9CShowInfo @ 45 NONAME
	_ZN13CPodcastModel18GetShowsDownloadedEv @ 46 NONAME
	_ZN13CPodcastModel19GetShowsDownloadingEv @ 47 NONAME
	_ZN13CPodcastModel19MarkSelectionPlayedEv @ 48 NONAME
	_ZN13CPodcastModel4NewLEv @ 49 NONAME
	_ZN13CPodcastModel6IAPIdsEv @ 50 NONAME
	_ZN13CPodcastModel6SetIapEi @ 51 NONAME
	_ZN13CPodcastModel8IAPNamesEv @ 52 NONAME
	_ZN15CSettingsEngine10SetBaseDirER4TBufILi256EE @ 53 NONAME
	_ZN15CSettingsEngine11SpecificIAPEv @ 54 NONAME
	_ZN15CSettingsEngine12SeekStepTimeEv @ 55 NONAME
	_ZN15CSettingsEngine13SaveSettingsLEv @ 56 NONAME
	_ZN15CSettingsEngine14SetSpecificIAPEi @ 57 NONAME
	_ZN15CSettingsEngine14UpdateFeedTimeEv @ 58 NONAME
	_ZN15CSettingsEngine16SetSeekStepTimekEi @ 59 NONAME
	_ZN15CSettingsEngine17SetUpdateFeedTimeE5TTime @ 60 NONAME
	_ZN15CSettingsEngine18SelectUnplayedOnlyEv @ 61 NONAME
	_ZN15CSettingsEngine18UpdateFeedIntervalEv @ 62 NONAME
	_ZN15CSettingsEngine19UpdateAutomaticallyEv @ 63 NONAME
	_ZN15CSettingsEngine21DownloadAutomaticallyEv @ 64 NONAME
	_ZN15CSettingsEngine21SetSelectUnplayedOnlyEi @ 65 NONAME
	_ZN15CSettingsEngine21SetUpdateFeedIntervalEi @ 66 NONAME
	_ZN15CSettingsEngine22SetUpdateAutomaticallyE18TAutoUpdateSetting @ 67 NONAME
	_ZN15CSettingsEngine24MaxSimultaneousDownloadsEv @ 68 NONAME
	_ZN15CSettingsEngine24SetDownloadAutomaticallyEi @ 69 NONAME
	_ZN15CSettingsEngine27SetMaxSimultaneousDownloadsEi @ 70 NONAME
	_ZN15CSettingsEngine7BaseDirEv @ 71 NONAME
	_ZN9CFeedInfo10IsBookFeedEv @ 72 NONAME
	_ZN9CFeedInfo11CustomTitleEv @ 73 NONAME
	_ZN9CFeedInfo11LastUpdatedEv @ 74 NONAME
	_ZN9CFeedInfo12SetBuildDateE5TTime @ 75 NONAME
	_ZN9CFeedInfo12SetImageUrlLERK7TDesC16 @ 76 NONAME
	_ZN9CFeedInfo13SetIsBookFeedEv @ 77 NONAME
	_ZN9CFeedInfo14SetCustomTitleEv @ 78 NONAME
	_ZN9CFeedInfo14SetLastUpdatedE5TTime @ 79 NONAME
	_ZN9CFeedInfo15SetDescriptionLERK7TDesC16 @ 80 NONAME
	_ZN9CFeedInfo17SetImageFileNameLERK7TDesC16 @ 81 NONAME
	_ZN9CFeedInfo3UidEv @ 82 NONAME
	_ZN9CFeedInfo4NewLEv @ 83 NONAME
	_ZN9CFeedInfo5NewLCEv @ 84 NONAME
	_ZN9CFeedInfo7SetUrlLERK7TDesC16 @ 85 NONAME
	_ZN9CFeedInfo8SetLinkLERK7TDesC16 @ 86 NONAME
	_ZN9CFeedInfo9BuildDateEv @ 87 NONAME
	_ZN9CFeedInfo9SetTitleLERK7TDesC16 @ 88 NONAME
	_ZN9CFeedInfoD0Ev @ 89 NONAME
	_ZN9CFeedInfoD1Ev @ 90 NONAME
	_ZN9CFeedInfoD2Ev @ 91 NONAME
	_ZN9CShowInfo10SetFeedUidEj @ 92 NONAME
	_ZN9CShowInfo10SetPubDateE5TTime @ 93 NONAME
	_ZN9CShowInfo10SetTrackNoEj @ 94 NONAME
	_ZN9CShowInfo11SetPlayTimeEj @ 95 NONAME
	_ZN9CShowInfo11SetPositionE25TTimeIntervalMicroSeconds @ 96 NONAME
	_ZN9CShowInfo11SetShowSizeEj @ 97 NONAME
	_ZN9CShowInfo11SetShowTypeE9TShowType @ 98 NONAME
	_ZN9CShowInfo12SetFileNameLERK7TDesC16 @ 99 NONAME
	_ZN9CShowInfo12SetPlayStateE10TPlayState @ 100 NONAME
	_ZN9CShowInfo13DownloadStateEv @ 101 NONAME
	_ZN9CShowInfo15SetDescriptionLERK7TDesC16 @ 102 NONAME
	_ZN9CShowInfo16SetDownloadStateE14TDownloadState @ 103 NONAME
	_ZN9CShowInfo4NewLEj @ 104 NONAME
	_ZN9CShowInfo6SetUidEj @ 105 NONAME
	_ZN9CShowInfo7FeedUidEv @ 106 NONAME
	_ZN9CShowInfo7SetUrlLERK7TDesC16 @ 107 NONAME
	_ZN9CShowInfo8ShowSizeEv @ 108 NONAME
	_ZN9CShowInfo8ShowTypeEv @ 109 NONAME
	_ZN9CShowInfo9PlayStateEv @ 110 NONAME
	_ZN9CShowInfo9SetTitleLERK7TDesC16 @ 111 NONAME
	_ZN9CShowInfoC1EPS_ @ 112 NONAME
	_ZN9CShowInfoC2EPS_ @ 113 NONAME
	_ZN9CShowInfoD0Ev @ 114 NONAME
	_ZN9CShowInfoD1Ev @ 115 NONAME
	_ZN9CShowInfoD2Ev @ 116 NONAME
	_ZNK9CFeedInfo11DescriptionEv @ 117 NONAME
	_ZNK9CFeedInfo13ImageFileNameEv @ 118 NONAME
	_ZNK9CFeedInfo3UrlEv @ 119 NONAME
	_ZNK9CFeedInfo4LinkEv @ 120 NONAME
	_ZNK9CFeedInfo5TitleEv @ 121 NONAME
	_ZNK9CFeedInfo8ImageUrlEv @ 122 NONAME
	_ZNK9CShowInfo11DescriptionEv @ 123 NONAME
	_ZNK9CShowInfo3UidEv @ 124 NONAME
	_ZNK9CShowInfo3UrlEv @ 125 NONAME
	_ZNK9CShowInfo5TitleEv @ 126 NONAME
	_ZNK9CShowInfo7PubDateEv @ 127 NONAME
	_ZNK9CShowInfo7TrackNoEv @ 128 NONAME
	_ZNK9CShowInfo8FileNameEv @ 129 NONAME
	_ZNK9CShowInfo8PlayTimeEv @ 130 NONAME
	_ZNK9CShowInfo8PositionEv @ 131 NONAME
	_ZTI10CFeedTimer @ 132 NONAME
	_ZTI11CFeedEngine @ 133 NONAME
	_ZTI11CFeedParser @ 134 NONAME
	_ZTI11CHttpClient @ 135 NONAME
	_ZTI11COpmlParser @ 136 NONAME
	_ZTI11CShowEngine @ 137 NONAME
	_ZTI12CSoundEngine @ 138 NONAME
	_ZTI13CPodcastModel @ 139 NONAME
	_ZTI15CMetaDataReader @ 140 NONAME
	_ZTI15CSettingsEngine @ 141 NONAME
	_ZTI17CHttpEventHandler @ 142 NONAME
	_ZTI18CTelephonyListener @ 143 NONAME
	_ZTI22CRemoteControlListener @ 144 NONAME
	_ZTI9CFeedInfo @ 145 NONAME
	_ZTI9CShowInfo @ 146 NONAME
	_ZTV10CFeedTimer @ 147 NONAME
	_ZTV11CFeedEngine @ 148 NONAME
	_ZTV11CFeedParser @ 149 NONAME
	_ZTV11CHttpClient @ 150 NONAME
	_ZTV11COpmlParser @ 151 NONAME
	_ZTV11CShowEngine @ 152 NONAME
	_ZTV12CSoundEngine @ 153 NONAME
	_ZTV13CPodcastModel @ 154 NONAME
	_ZTV15CMetaDataReader @ 155 NONAME
	_ZTV15CSettingsEngine @ 156 NONAME
	_ZTV17CHttpEventHandler @ 157 NONAME
	_ZTV18CTelephonyListener @ 158 NONAME
	_ZTV22CRemoteControlListener @ 159 NONAME
	_ZTV9CFeedInfo @ 160 NONAME
	_ZTV9CShowInfo @ 161 NONAME
	sqlite3_aggregate_context @ 162 NONAME
	sqlite3_aggregate_count @ 163 NONAME
	sqlite3_auto_extension @ 164 NONAME
	sqlite3_bind_blob @ 165 NONAME
	sqlite3_bind_double @ 166 NONAME
	sqlite3_bind_int @ 167 NONAME
	sqlite3_bind_int64 @ 168 NONAME
	sqlite3_bind_null @ 169 NONAME
	sqlite3_bind_parameter_count @ 170 NONAME
	sqlite3_bind_parameter_index @ 171 NONAME
	sqlite3_bind_parameter_name @ 172 NONAME
	sqlite3_bind_text @ 173 NONAME
	sqlite3_bind_text16 @ 174 NONAME
	sqlite3_bind_value @ 175 NONAME
	sqlite3_bind_zeroblob @ 176 NONAME
	sqlite3_blob_bytes @ 177 NONAME
	sqlite3_blob_close @ 178 NONAME
	sqlite3_blob_open @ 179 NONAME
	sqlite3_blob_read @ 180 NONAME
	sqlite3_blob_write @ 181 NONAME
	sqlite3_busy_handler @ 182 NONAME
	sqlite3_busy_timeout @ 183 NONAME
	sqlite3_changes @ 184 NONAME
	sqlite3_clear_bindings @ 185 NONAME
	sqlite3_close @ 186 NONAME
	sqlite3_collation_needed @ 187 NONAME
	sqlite3_collation_needed16 @ 188 NONAME
	sqlite3_column_blob @ 189 NONAME
	sqlite3_column_bytes @ 190 NONAME
	sqlite3_column_bytes16 @ 191 NONAME
	sqlite3_column_count @ 192 NONAME
	sqlite3_column_decltype @ 193 NONAME
	sqlite3_column_decltype16 @ 194 NONAME
	sqlite3_column_double @ 195 NONAME
	sqlite3_column_int @ 196 NONAME
	sqlite3_column_int64 @ 197 NONAME
	sqlite3_column_name @ 198 NONAME
	sqlite3_column_name16 @ 199 NONAME
	sqlite3_column_text @ 200 NONAME
	sqlite3_column_text16 @ 201 NONAME
	sqlite3_column_type @ 202 NONAME
	sqlite3_column_value @ 203 NONAME
	sqlite3_commit_hook @ 204 NONAME
	sqlite3_complete @ 205 NONAME
	sqlite3_complete16 @ 206 NONAME
	sqlite3_create_collation @ 207 NONAME
	sqlite3_create_collation16 @ 208 NONAME
	sqlite3_create_collation_v2 @ 209 NONAME
	sqlite3_create_function @ 210 NONAME
	sqlite3_create_function16 @ 211 NONAME
	sqlite3_create_module @ 212 NONAME
	sqlite3_create_module_v2 @ 213 NONAME
	sqlite3_data_count @ 214 NONAME
	sqlite3_db_handle @ 215 NONAME
	sqlite3_declare_vtab @ 216 NONAME
	sqlite3_enable_load_extension @ 217 NONAME
	sqlite3_enable_shared_cache @ 218 NONAME
	sqlite3_errcode @ 219 NONAME
	sqlite3_errmsg @ 220 NONAME
	sqlite3_errmsg16 @ 221 NONAME
	sqlite3_exec @ 222 NONAME
	sqlite3_expired @ 223 NONAME
	sqlite3_extended_result_codes @ 224 NONAME
	sqlite3_file_control @ 225 NONAME
	sqlite3_finalize @ 226 NONAME
	sqlite3_free @ 227 NONAME
	sqlite3_free_table @ 228 NONAME
	sqlite3_get_autocommit @ 229 NONAME
	sqlite3_get_auxdata @ 230 NONAME
	sqlite3_get_table @ 231 NONAME
	sqlite3_global_recover @ 232 NONAME
	sqlite3_interrupt @ 233 NONAME
	sqlite3_last_insert_rowid @ 234 NONAME
	sqlite3_libversion @ 235 NONAME
	sqlite3_libversion_number @ 236 NONAME
	sqlite3_load_extension @ 237 NONAME
	sqlite3_malloc @ 238 NONAME
	sqlite3_memory_alarm @ 239 NONAME
	sqlite3_memory_highwater @ 240 NONAME
	sqlite3_memory_used @ 241 NONAME
	sqlite3_mprintf @ 242 NONAME
	sqlite3_open @ 243 NONAME
	sqlite3_open16 @ 244 NONAME
	sqlite3_open_v2 @ 245 NONAME
	sqlite3_overload_function @ 246 NONAME
	sqlite3_prepare @ 247 NONAME
	sqlite3_prepare16 @ 248 NONAME
	sqlite3_prepare16_v2 @ 249 NONAME
	sqlite3_prepare_v2 @ 250 NONAME
	sqlite3_profile @ 251 NONAME
	sqlite3_progress_handler @ 252 NONAME
	sqlite3_realloc @ 253 NONAME
	sqlite3_release_memory @ 254 NONAME
	sqlite3_reset @ 255 NONAME
	sqlite3_reset_auto_extension @ 256 NONAME
	sqlite3_result_blob @ 257 NONAME
	sqlite3_result_double @ 258 NONAME
	sqlite3_result_error @ 259 NONAME
	sqlite3_result_error16 @ 260 NONAME
	sqlite3_result_error_nomem @ 261 NONAME
	sqlite3_result_error_toobig @ 262 NONAME
	sqlite3_result_int @ 263 NONAME
	sqlite3_result_int64 @ 264 NONAME
	sqlite3_result_null @ 265 NONAME
	sqlite3_result_text @ 266 NONAME
	sqlite3_result_text16 @ 267 NONAME
	sqlite3_result_text16be @ 268 NONAME
	sqlite3_result_text16le @ 269 NONAME
	sqlite3_result_value @ 270 NONAME
	sqlite3_result_zeroblob @ 271 NONAME
	sqlite3_rollback_hook @ 272 NONAME
	sqlite3_set_authorizer @ 273 NONAME
	sqlite3_set_auxdata @ 274 NONAME
	sqlite3_sleep @ 275 NONAME
	sqlite3_snprintf @ 276 NONAME
	sqlite3_soft_heap_limit @ 277 NONAME
	sqlite3_sql @ 278 NONAME
	sqlite3_step @ 279 NONAME
	sqlite3_thread_cleanup @ 280 NONAME
	sqlite3_threadsafe @ 281 NONAME
	sqlite3_total_changes @ 282 NONAME
	sqlite3_trace @ 283 NONAME
	sqlite3_transfer_bindings @ 284 NONAME
	sqlite3_update_hook @ 285 NONAME
	sqlite3_user_data @ 286 NONAME
	sqlite3_value_blob @ 287 NONAME
	sqlite3_value_bytes @ 288 NONAME
	sqlite3_value_bytes16 @ 289 NONAME
	sqlite3_value_double @ 290 NONAME
	sqlite3_value_int @ 291 NONAME
	sqlite3_value_int64 @ 292 NONAME
	sqlite3_value_numeric_type @ 293 NONAME
	sqlite3_value_text @ 294 NONAME
	sqlite3_value_text16 @ 295 NONAME
	sqlite3_value_text16be @ 296 NONAME
	sqlite3_value_text16le @ 297 NONAME
	sqlite3_value_type @ 298 NONAME
	sqlite3_vfs_find @ 299 NONAME
	sqlite3_vfs_register @ 300 NONAME
	sqlite3_vfs_unregister @ 301 NONAME
	sqlite3_vmprintf @ 302 NONAME

